; Function Attrs: nofree norecurse nosync nounwind memory(readwrite, inaccessiblemem: none) uwtable
define internal void @Blit2bto2Key(ptr noundef readonly captures(none) %0) #1 {
  %2 = getelementptr inbounds nuw i8, ptr %0, i64 48
  %3 = load i32, ptr %2, align 8
  %4 = getelementptr inbounds nuw i8, ptr %0, i64 52
  %5 = load i32, ptr %4, align 4
  %6 = getelementptr inbounds nuw i8, ptr %0, i64 8
  %7 = load ptr, ptr %6, align 8
  %8 = getelementptr inbounds nuw i8, ptr %0, i64 40
  %9 = load ptr, ptr %8, align 8
  %10 = getelementptr inbounds nuw i8, ptr %0, i64 28
  %11 = load i32, ptr %10, align 4
  %12 = getelementptr inbounds nuw i8, ptr %0, i64 60
  %13 = load i32, ptr %12, align 4
  %14 = getelementptr inbounds nuw i8, ptr %0, i64 116
  %15 = load i32, ptr %14, align 4
  %16 = getelementptr inbounds nuw i8, ptr %0, i64 96
  %17 = load ptr, ptr %16, align 8
  %18 = add nsw i32 %3, 3
  %.neg80.i = sdiv i32 %18, -4
  %19 = add i32 %.neg80.i, %3
  %20 = add nsw i32 %19, %11
  %21 = sdiv i32 %13, 2
  %22 = getelementptr inbounds nuw i8, ptr %0, i64 64
  %23 = load ptr, ptr %22, align 8
  %24 = load i32, ptr %23, align 4
  %25 = and i32 %24, 15728640
  %26 = icmp eq i32 %25, 1048576
  %.not84.i18 = icmp eq i32 %5, 0
  br i1 %26, label %.preheader1, label %.preheader3

.preheader3:                                      ; preds = %1
  br i1 %.not84.i18, label %BlitBto2Key.exit, label %.preheader2.lr.ph

.preheader2.lr.ph:                                ; preds = %.preheader3
  %27 = icmp sgt i32 %3, 0
  %28 = sext i32 %20 to i64
  %29 = sext i32 %21 to i64
  br i1 %27, label %.preheader2.us, label %BlitBto2Key.exit

.preheader2.us:                                   ; preds = %.preheader2.lr.ph, %._crit_edge.us
  %.in = phi i32 [ %30, %._crit_edge.us ], [ %5, %.preheader2.lr.ph ]
  %.3.i12.us = phi ptr [ %47, %._crit_edge.us ], [ %7, %.preheader2.lr.ph ]
  %.276.i11.us = phi ptr [ %48, %._crit_edge.us ], [ %9, %.preheader2.lr.ph ]
  %30 = add nsw i32 %.in, -1
  br label %31

31:                                               ; preds = %.preheader2.us, %43
  %.066.i8.us = phi i8 [ 0, %.preheader2.us ], [ %44, %43 ]
  %.4.i7.us = phi ptr [ %.3.i12.us, %.preheader2.us ], [ %.5.i.us, %43 ]
  %.173.i6.us = phi i32 [ 0, %.preheader2.us ], [ %46, %43 ]
  %.377.i5.us = phi ptr [ %.276.i11.us, %.preheader2.us ], [ %45, %43 ]
  %32 = and i32 %.173.i6.us, 3
  %.not82.i.us = icmp eq i32 %32, 0
  br i1 %.not82.i.us, label %33, label %36

33:                                               ; preds = %31
  %34 = getelementptr inbounds nuw i8, ptr %.4.i7.us, i64 1
  %35 = load i8, ptr %.4.i7.us, align 1
  br label %36

36:                                               ; preds = %33, %31
  %.5.i.us = phi ptr [ %.4.i7.us, %31 ], [ %34, %33 ]
  %.167.i.us = phi i8 [ %.066.i8.us, %31 ], [ %35, %33 ]
  %37 = lshr i8 %.167.i.us, 6
  %38 = zext nneg i8 %37 to i32
  %.not83.i.us = icmp eq i32 %15, %38
  br i1 %.not83.i.us, label %43, label %39

39:                                               ; preds = %36
  %40 = zext nneg i8 %37 to i64
  %41 = getelementptr inbounds nuw i16, ptr %17, i64 %40
  %42 = load i16, ptr %41, align 2
  store i16 %42, ptr %.377.i5.us, align 2
  br label %43

43:                                               ; preds = %39, %36
  %44 = shl i8 %.167.i.us, 2
  %45 = getelementptr inbounds nuw i8, ptr %.377.i5.us, i64 2
  %46 = add nuw nsw i32 %.173.i6.us, 1
  %exitcond.not = icmp eq i32 %46, %3
  br i1 %exitcond.not, label %._crit_edge.us, label %31, !llvm.loop !40

._crit_edge.us:                                   ; preds = %43
  %47 = getelementptr inbounds i8, ptr %.5.i.us, i64 %28
  %48 = getelementptr inbounds i16, ptr %45, i64 %29
  %.not.i.us = icmp eq i32 %30, 0
  br i1 %.not.i.us, label %BlitBto2Key.exit, label %.preheader2.us, !llvm.loop !41

.preheader1:                                      ; preds = %1
  br i1 %.not84.i18, label %BlitBto2Key.exit, label %.preheader.lr.ph

.preheader.lr.ph:                                 ; preds = %.preheader1
  %49 = icmp sgt i32 %3, 0
  %50 = sext i32 %20 to i64
  %51 = sext i32 %21 to i64
  br i1 %49, label %.preheader.us, label %BlitBto2Key.exit

.preheader.us:                                    ; preds = %.preheader.lr.ph, %._crit_edge.us21
  %.in28 = phi i32 [ %52, %._crit_edge.us21 ], [ %5, %.preheader.lr.ph ]
  %.068.i20.us = phi ptr [ %69, %._crit_edge.us21 ], [ %7, %.preheader.lr.ph ]
  %.074.i19.us = phi ptr [ %70, %._crit_edge.us21 ], [ %9, %.preheader.lr.ph ]
  %52 = add nsw i32 %.in28, -1
  br label %53

53:                                               ; preds = %.preheader.us, %65
  %.169.i16.us = phi ptr [ %.068.i20.us, %.preheader.us ], [ %.2.i.us, %65 ]
  %.070.i15.us = phi i8 [ 0, %.preheader.us ], [ %66, %65 ]
  %.072.i14.us = phi i32 [ 0, %.preheader.us ], [ %68, %65 ]
  %.175.i13.us = phi ptr [ %.074.i19.us, %.preheader.us ], [ %67, %65 ]
  %54 = and i32 %.072.i14.us, 3
  %.not85.i.us = icmp eq i32 %54, 0
  br i1 %.not85.i.us, label %55, label %58

55:                                               ; preds = %53
  %56 = getelementptr inbounds nuw i8, ptr %.169.i16.us, i64 1
  %57 = load i8, ptr %.169.i16.us, align 1
  br label %58

58:                                               ; preds = %55, %53
  %.171.i.us = phi i8 [ %.070.i15.us, %53 ], [ %57, %55 ]
  %.2.i.us = phi ptr [ %.169.i16.us, %53 ], [ %56, %55 ]
  %59 = and i8 %.171.i.us, 3
  %60 = zext nneg i8 %59 to i32
  %.not86.i.us = icmp eq i32 %15, %60
  br i1 %.not86.i.us, label %65, label %61

61:                                               ; preds = %58
  %62 = zext nneg i8 %59 to i64
  %63 = getelementptr inbounds nuw i16, ptr %17, i64 %62
  %64 = load i16, ptr %63, align 2
  store i16 %64, ptr %.175.i13.us, align 2
  br label %65

65:                                               ; preds = %61, %58
  %66 = lshr i8 %.171.i.us, 2
  %67 = getelementptr inbounds nuw i8, ptr %.175.i13.us, i64 2
  %68 = add nuw nsw i32 %.072.i14.us, 1
  %exitcond27.not = icmp eq i32 %68, %3
  br i1 %exitcond27.not, label %._crit_edge.us21, label %53, !llvm.loop !42

._crit_edge.us21:                                 ; preds = %65
  %69 = getelementptr inbounds i8, ptr %.2.i.us, i64 %50
  %70 = getelementptr inbounds i16, ptr %67, i64 %51
  %.not84.i.us = icmp eq i32 %52, 0
  br i1 %.not84.i.us, label %BlitBto2Key.exit, label %.preheader.us, !llvm.loop !43

BlitBto2Key.exit:                                 ; preds = %._crit_edge.us, %._crit_edge.us21, %.preheader.lr.ph, %.preheader2.lr.ph, %.preheader3, %.preheader1
  ret void
}